target datalayout = "e-m:e-p270:32:32-p271:32:32-p272:64:64-i64:64-i128:128-f80:128-n8:16:32:64-S128"
target triple = "x86_64-pc-linux-gnu"

%struct.CRYPTO_REF_COUNT = type { i32 }
%struct.bio_st = type { ptr, ptr, ptr, ptr, ptr, i32, i32, i32, i32, i32, ptr, ptr, ptr, %struct.CRYPTO_REF_COUNT, i64, i64, %struct.crypto_ex_data_st }
%struct.crypto_ex_data_st = type { ptr, ptr }

; Function Attrs: nounwind uwtable
define i32 @BIO_test_flags(ptr noundef %0, i32 noundef %1) #0 {
  %3 = alloca ptr, align 8
  %4 = alloca i32, align 4
  store ptr %0, ptr %3, align 8, !tbaa !10
  store i32 %1, ptr %4, align 4, !tbaa !26
  %5 = load ptr, ptr %3, align 8, !tbaa !10
  %6 = getelementptr inbounds nuw %struct.bio_st, ptr %5, i32 0, i32 7
  %7 = load i32, ptr %6, align 8, !tbaa !38
  %8 = load i32, ptr %4, align 4, !tbaa !26
  %9 = and i32 %7, %8
  ret i32 %9
}

; Function Attrs: nounwind uwtable
define ptr @BIO_get_retry_BIO(ptr noundef %0, ptr noundef %1) #0 {
  %3 = alloca ptr, align 8
  %4 = alloca ptr, align 8
  %5 = alloca ptr, align 8
  %6 = alloca ptr, align 8
  store ptr %0, ptr %3, align 8, !tbaa !10
  store ptr %1, ptr %4, align 8, !tbaa !31
  call void @llvm.lifetime.start.p0(i64 8, ptr %5) #5
  call void @llvm.lifetime.start.p0(i64 8, ptr %6) #5
  %7 = load ptr, ptr %3, align 8, !tbaa !10
  store ptr %7, ptr %6, align 8, !tbaa !10
  store ptr %7, ptr %5, align 8, !tbaa !10
  br label %8

8:                                                ; preds = %21, %2
  %9 = load ptr, ptr %5, align 8, !tbaa !10
  %10 = call i32 @BIO_test_flags(ptr noundef %9, i32 noundef 8)
  %11 = icmp ne i32 %10, 0
  br i1 %11, label %13, label %12

12:                                               ; preds = %8
  br label %22

13:                                               ; preds = %8
  %14 = load ptr, ptr %5, align 8, !tbaa !10
  store ptr %14, ptr %6, align 8, !tbaa !10
  %15 = load ptr, ptr %5, align 8, !tbaa !10
  %16 = getelementptr inbounds nuw %struct.bio_st, ptr %15, i32 0, i32 11
  %17 = load ptr, ptr %16, align 8, !tbaa !66
  store ptr %17, ptr %5, align 8, !tbaa !10
  %18 = load ptr, ptr %5, align 8, !tbaa !10
  %19 = icmp eq ptr %18, null
  br i1 %19, label %20, label %21

20:                                               ; preds = %13
  br label %22

21:                                               ; preds = %13
  br label %8

22:                                               ; preds = %20, %12
  %23 = load ptr, ptr %4, align 8, !tbaa !31
  %24 = icmp ne ptr %23, null
  br i1 %24, label %25, label %30

25:                                               ; preds = %22
  %26 = load ptr, ptr %6, align 8, !tbaa !10
  %27 = getelementptr inbounds nuw %struct.bio_st, ptr %26, i32 0, i32 8
  %28 = load i32, ptr %27, align 4, !tbaa !69
  %29 = load ptr, ptr %4, align 8, !tbaa !31
  store i32 %28, ptr %29, align 4, !tbaa !26
  br label %30

30:                                               ; preds = %25, %22
  %31 = load ptr, ptr %6, align 8, !tbaa !10
  call void @llvm.lifetime.end.p0(i64 8, ptr %6) #5
  call void @llvm.lifetime.end.p0(i64 8, ptr %5) #5
  ret ptr %31
}