; Function Attrs: nofree norecurse nosync nounwind memory(read, argmem: readwrite, inaccessiblemem: none) uwtable
define ptr @BIO_get_retry_BIO(ptr noundef readonly captures(ret: address, provenance) %0, ptr noundef writeonly captures(address_is_null) %1) local_unnamed_addr #8 {
  %3 = getelementptr inbounds nuw i8, ptr %0, i64 48
  %4 = load i32, ptr %3, align 8, !tbaa !27
  %5 = and i32 %4, 8
  %.not13 = icmp eq i32 %5, 0
  br i1 %.not13, label %._crit_edge, label %.lr.ph

6:                                                ; preds = %.lr.ph
  %7 = getelementptr inbounds nuw i8, ptr %11, i64 48
  %8 = load i32, ptr %7, align 8, !tbaa !27
  %9 = and i32 %8, 8
  %.not = icmp eq i32 %9, 0
  br i1 %.not, label %._crit_edge, label %.lr.ph

.lr.ph:                                           ; preds = %2, %6
  %.0914 = phi ptr [ %11, %6 ], [ %0, %2 ]
  %10 = getelementptr inbounds nuw i8, ptr %.0914, i64 72
  %11 = load ptr, ptr %10, align 8, !tbaa !56
  %12 = icmp eq ptr %11, null
  br i1 %12, label %._crit_edge, label %6

._crit_edge:                                      ; preds = %6, %.lr.ph, %2
  %.1 = phi ptr [ %0, %2 ], [ %.0914, %.lr.ph ], [ %.0914, %6 ]
  %.not12 = icmp eq ptr %1, null
  br i1 %.not12, label %16, label %13

13:                                               ; preds = %._crit_edge
  %14 = getelementptr inbounds nuw i8, ptr %.1, i64 52
  %15 = load i32, ptr %14, align 4, !tbaa !59
  store i32 %15, ptr %1, align 4, !tbaa !53
  br label %16

16:                                               ; preds = %13, %._crit_edge
  ret ptr %.1
}